; ModuleID = '12/1020.c'
source_filename = "12/1020.c"
target datalayout = "e-m:e-p270:32:32-p271:32:32-p272:64:64-i64:64-f80:128-n8:16:32:64-S128"
target triple = "x86_64-pc-linux-gnu"

@.str = private unnamed_addr constant [3 x i8] c"%d\00", align 1
@.str.1 = private unnamed_addr constant [4 x i8] c"%d\0A\00", align 1

; Function Attrs: noinline nounwind uwtable
define dso_local i32 @main() #0 {
  %1 = alloca i32, align 4
  %2 = alloca i32, align 4
  %3 = alloca i32, align 4
  %4 = alloca i32, align 4
  %5 = alloca i32, align 4
  %6 = alloca i32, align 4
  %7 = alloca [100 x i32], align 16
  store i32 0, i32* %1, align 4
  br label %8

8:                                                ; preds = %0, %127
  %9 = getelementptr inbounds [100 x i32], [100 x i32]* %7, i64 0, i64 0
  %10 = call i32 (i8*, ...) @__isoc99_scanf(i8* getelementptr inbounds ([3 x i8], [3 x i8]* @.str, i64 0, i64 0), i32* %9)
  %11 = getelementptr inbounds [100 x i32], [100 x i32]* %7, i64 0, i64 0
  %12 = load i32, i32* %11, align 16
  %13 = icmp eq i32 %12, -1
  br i1 %13, label %14, label %15

14:                                               ; preds = %8
  br label %130

15:                                               ; preds = %8
  store i32 1, i32* %2, align 4
  br label %16

16:                                               ; preds = %28, %15
  %17 = load i32, i32* %2, align 4
  %18 = sext i32 %17 to i64
  %19 = getelementptr inbounds [100 x i32], [100 x i32]* %7, i64 0, i64 %18
  %20 = call i32 (i8*, ...) @__isoc99_scanf(i8* getelementptr inbounds ([3 x i8], [3 x i8]* @.str, i64 0, i64 0), i32* %19)
  %21 = load i32, i32* %2, align 4
  %22 = sext i32 %21 to i64
  %23 = getelementptr inbounds [100 x i32], [100 x i32]* %7, i64 0, i64 %22
  %24 = load i32, i32* %23, align 4
  %25 = icmp eq i32 %24, 0
  br i1 %25, label %26, label %27

26:                                               ; preds = %16
  br label %31

27:                                               ; preds = %16
  br label %28

28:                                               ; preds = %27
  %29 = load i32, i32* %2, align 4
  %30 = add nsw i32 %29, 1
  store i32 %30, i32* %2, align 4
  br label %16

31:                                               ; preds = %26
  %32 = load i32, i32* %2, align 4
  store i32 %32, i32* %4, align 4
  %33 = load i32, i32* %4, align 4
  %34 = sub nsw i32 %33, 1
  store i32 %34, i32* %2, align 4
  br label %35

35:                                               ; preds = %77, %31
  %36 = load i32, i32* %2, align 4
  %37 = icmp sgt i32 %36, 0
  br i1 %37, label %38, label %80

38:                                               ; preds = %35
  store i32 0, i32* %3, align 4
  br label %39

39:                                               ; preds = %73, %38
  %40 = load i32, i32* %3, align 4
  %41 = load i32, i32* %2, align 4
  %42 = icmp slt i32 %40, %41
  br i1 %42, label %43, label %76

43:                                               ; preds = %39
  %44 = load i32, i32* %3, align 4
  %45 = sext i32 %44 to i64
  %46 = getelementptr inbounds [100 x i32], [100 x i32]* %7, i64 0, i64 %45
  %47 = load i32, i32* %46, align 4
  %48 = load i32, i32* %3, align 4
  %49 = add nsw i32 %48, 1
  %50 = sext i32 %49 to i64
  %51 = getelementptr inbounds [100 x i32], [100 x i32]* %7, i64 0, i64 %50
  %52 = load i32, i32* %51, align 4
  %53 = icmp sgt i32 %47, %52
  br i1 %53, label %54, label %72

54:                                               ; preds = %43
  %55 = load i32, i32* %3, align 4
  %56 = sext i32 %55 to i64
  %57 = getelementptr inbounds [100 x i32], [100 x i32]* %7, i64 0, i64 %56
  %58 = load i32, i32* %57, align 4
  store i32 %58, i32* %5, align 4
  %59 = load i32, i32* %3, align 4
  %60 = add nsw i32 %59, 1
  %61 = sext i32 %60 to i64
  %62 = getelementptr inbounds [100 x i32], [100 x i32]* %7, i64 0, i64 %61
  %63 = load i32, i32* %62, align 4
  %64 = load i32, i32* %3, align 4
  %65 = sext i32 %64 to i64
  %66 = getelementptr inbounds [100 x i32], [100 x i32]* %7, i64 0, i64 %65
  store i32 %63, i32* %66, align 4
  %67 = load i32, i32* %5, align 4
  %68 = load i32, i32* %3, align 4
  %69 = add nsw i32 %68, 1
  %70 = sext i32 %69 to i64
  %71 = getelementptr inbounds [100 x i32], [100 x i32]* %7, i64 0, i64 %70
  store i32 %67, i32* %71, align 4
  br label %72

72:                                               ; preds = %54, %43
  br label %73

73:                                               ; preds = %72
  %74 = load i32, i32* %3, align 4
  %75 = add nsw i32 %74, 1
  store i32 %75, i32* %3, align 4
  br label %39

76:                                               ; preds = %39
  br label %77

77:                                               ; preds = %76
  %78 = load i32, i32* %2, align 4
  %79 = add nsw i32 %78, -1
  store i32 %79, i32* %2, align 4
  br label %35

80:                                               ; preds = %35
  store i32 0, i32* %6, align 4
  store i32 0, i32* %2, align 4
  br label %81

81:                                               ; preds = %124, %80
  %82 = load i32, i32* %2, align 4
  %83 = load i32, i32* %4, align 4
  %84 = sub nsw i32 %83, 1
  %85 = icmp slt i32 %82, %84
  br i1 %85, label %86, label %127

86:                                               ; preds = %81
  %87 = load i32, i32* %2, align 4
  %88 = add nsw i32 %87, 1
  store i32 %88, i32* %3, align 4
  br label %89

89:                                               ; preds = %120, %86
  %90 = load i32, i32* %3, align 4
  %91 = load i32, i32* %4, align 4
  %92 = icmp slt i32 %90, %91
  br i1 %92, label %93, label %123

93:                                               ; preds = %89
  %94 = load i32, i32* %3, align 4
  %95 = sext i32 %94 to i64
  %96 = getelementptr inbounds [100 x i32], [100 x i32]* %7, i64 0, i64 %95
  %97 = load i32, i32* %96, align 4
  %98 = load i32, i32* %2, align 4
  %99 = sext i32 %98 to i64
  %100 = getelementptr inbounds [100 x i32], [100 x i32]* %7, i64 0, i64 %99
  %101 = load i32, i32* %100, align 4
  %102 = mul nsw i32 2, %101
  %103 = icmp eq i32 %97, %102
  br i1 %103, label %104, label %107

104:                                              ; preds = %93
  %105 = load i32, i32* %6, align 4
  %106 = add nsw i32 %105, 1
  store i32 %106, i32* %6, align 4
  br label %123

107:                                              ; preds = %93
  %108 = load i32, i32* %3, align 4
  %109 = sext i32 %108 to i64
  %110 = getelementptr inbounds [100 x i32], [100 x i32]* %7, i64 0, i64 %109
  %111 = load i32, i32* %110, align 4
  %112 = load i32, i32* %2, align 4
  %113 = sext i32 %112 to i64
  %114 = getelementptr inbounds [100 x i32], [100 x i32]* %7, i64 0, i64 %113
  %115 = load i32, i32* %114, align 4
  %116 = mul nsw i32 2, %115
  %117 = icmp sgt i32 %111, %116
  br i1 %117, label %118, label %119

118:                                              ; preds = %107
  br label %123

119:                                              ; preds = %107
  br label %120

120:                                              ; preds = %119
  %121 = load i32, i32* %3, align 4
  %122 = add nsw i32 %121, 1
  store i32 %122, i32* %3, align 4
  br label %89

123:                                              ; preds = %118, %104, %89
  br label %124

124:                                              ; preds = %123
  %125 = load i32, i32* %2, align 4
  %126 = add nsw i32 %125, 1
  store i32 %126, i32* %2, align 4
  br label %81

127:                                              ; preds = %81
  %128 = load i32, i32* %6, align 4
  %129 = call i32 (i8*, ...) @printf(i8* getelementptr inbounds ([4 x i8], [4 x i8]* @.str.1, i64 0, i64 0), i32 %128)
  br label %8

130:                                              ; preds = %14
  ret i32 0
}

declare dso_local i32 @__isoc99_scanf(i8*, ...) #1

declare dso_local i32 @printf(i8*, ...) #1


!llvm.module.flags = !{!0}
!llvm.ident = !{!1}

!0 = !{i32 1, !"wchar_size", i32 4}
!1 = !{!"clang version 10.0.0-4ubuntu1 "}
